; Function Attrs: nounwind uwtable
define void @Abc_NtkPrintFanoutProfile(ptr noundef %0) local_unnamed_addr #0 {
  %2 = getelementptr i8, ptr %0, i64 16
  %.val = load i32, ptr %2, align 8, !tbaa !51
  %3 = getelementptr i8, ptr %0, i64 44
  %.val13 = load i32, ptr %3, align 4, !tbaa !80
  %4 = tail call i32 (ptr, ...) @printf(ptr noundef nonnull dereferenceable(1) @.str.1, i32 noundef %.val, i32 noundef %.val13)
  %.val1222 = load i32, ptr %3, align 4, !tbaa !80
  %5 = icmp sgt i32 %.val1222, 0
  br i1 %5, label %.lr.ph, label %.critedge

.lr.ph:                                           ; preds = %1
  %6 = getelementptr i8, ptr %0, i64 48
  br label %7

7:                                                ; preds = %.lr.ph, %7
  %indvars.iv = phi i64 [ 0, %.lr.ph ], [ %indvars.iv.next, %7 ]
  %.val14 = load ptr, ptr %0, align 8, !tbaa !48
  %.val15 = load ptr, ptr %6, align 8, !tbaa !81
  %8 = getelementptr i8, ptr %.val14, i64 32
  %.val14.val = load ptr, ptr %8, align 8, !tbaa !41
  %9 = getelementptr i8, ptr %.val14.val, i64 8
  %.val14.val.val = load ptr, ptr %9, align 8, !tbaa !43
  %10 = getelementptr inbounds nuw i32, ptr %.val15, i64 %indvars.iv
  %11 = load i32, ptr %10, align 4, !tbaa !54
  %12 = sext i32 %11 to i64
  %13 = getelementptr inbounds ptr, ptr %.val14.val.val, i64 %12
  %14 = load ptr, ptr %13, align 8, !tbaa !44
  %.val18 = load ptr, ptr %14, align 8, !tbaa !48
  %15 = getelementptr i8, ptr %14, i64 16
  %.val19 = load i32, ptr %15, align 8, !tbaa !51
  %16 = getelementptr i8, ptr %.val18, i64 360
  %.val18.val = load ptr, ptr %16, align 8, !tbaa !74
  %17 = getelementptr i8, ptr %.val18.val, i64 64
  %.val18.val.val = load ptr, ptr %17, align 8, !tbaa !70
  %18 = getelementptr i8, ptr %.val18.val.val, i64 8
  %.val18.val.val.val = load ptr, ptr %18, align 8, !tbaa !68
  %19 = sext i32 %.val19 to i64
  %20 = getelementptr inbounds float, ptr %.val18.val.val.val, i64 %19
  %21 = load float, ptr %20, align 4, !tbaa !73
  %22 = fpext float %21 to double
  %23 = getelementptr i8, ptr %.val18.val, i64 56
  %.val16.val.val = load ptr, ptr %23, align 8, !tbaa !69
  %24 = getelementptr i8, ptr %.val16.val.val, i64 8
  %.val16.val.val.val = load ptr, ptr %24, align 8, !tbaa !68
  %25 = getelementptr inbounds float, ptr %.val16.val.val.val, i64 %19
  %26 = load float, ptr %25, align 4, !tbaa !73
  %27 = fpext float %26 to double
  %28 = trunc nuw nsw i64 %indvars.iv to i32
  %29 = tail call i32 (ptr, ...) @printf(ptr noundef nonnull dereferenceable(1) @.str.2, i32 noundef %28, double noundef %22, double noundef %27)
  %30 = tail call i32 @Abc_NodeFindFanin(ptr noundef nonnull %14, ptr noundef nonnull %0) #24
  %.val20 = load ptr, ptr %14, align 8, !tbaa !48
  %.val21 = load i32, ptr %15, align 8, !tbaa !51
  %31 = getelementptr i8, ptr %.val20, i64 384
  %.val20.val = load ptr, ptr %31, align 8, !tbaa !96
  %32 = getelementptr i8, ptr %.val20.val, i64 8
  %.val20.val.val = load ptr, ptr %32, align 8, !tbaa !53
  %33 = sext i32 %.val21 to i64
  %34 = getelementptr inbounds i32, ptr %.val20.val.val, i64 %33
  %35 = load i32, ptr %34, align 4, !tbaa !54
  %36 = shl nuw i32 1, %30
  %37 = and i32 %35, %36
  %.not = icmp eq i32 %37, 0
  %38 = select i1 %.not, ptr @.str.5, ptr @.str.4
  %puts = tail call i32 @puts(ptr nonnull dereferenceable(1) %38)
  %indvars.iv.next = add nuw nsw i64 %indvars.iv, 1
  %.val12 = load i32, ptr %3, align 4, !tbaa !80
  %39 = sext i32 %.val12 to i64
  %40 = icmp slt i64 %indvars.iv.next, %39
  br i1 %40, label %7, label %.critedge, !llvm.loop !97

.critedge:                                        ; preds = %7, %1
  %putchar = tail call i32 @putchar(i32 10)
  ret void
}